target datalayout = "e-m:e-p270:32:32-p271:32:32-p272:64:64-i64:64-i128:128-f80:128-n8:16:32:64-S128"
target triple = "x86_64-pc-linux-gnu"

%"struct.clang::ASTNodeKind::KindInfo" = type { i32, ptr }
%"class.clang::ASTNodeKind" = type { i32 }

; Function Attrs: mustprogress nounwind uwtable
define dso_local noundef zeroext i1 @_ZN5clang11ASTNodeKind8isBaseOfENS0_10NodeKindIdES1_Pj(i32 noundef %0, i32 noundef %1, ptr noundef %2) #0 align 2 {
  %4 = alloca i1, align 1
  %5 = alloca i32, align 4
  %6 = alloca i32, align 4
  %7 = alloca ptr, align 8
  %8 = alloca i32, align 4
  store i32 %0, ptr %5, align 4
  store i32 %1, ptr %6, align 4
  store ptr %2, ptr %7, align 8
  %9 = load i32, ptr %5, align 4
  %10 = icmp eq i32 %9, 0
  br i1 %10, label %14, label %11

11:                                               ; preds = %3
  %12 = load i32, ptr %6, align 4
  %13 = icmp eq i32 %12, 0
  br i1 %13, label %14, label %15

14:                                               ; preds = %11, %3
  store i1 false, ptr %4, align 1
  br label %43

15:                                               ; preds = %11
  store i32 0, ptr %8, align 4
  br label %16

16:                                               ; preds = %25, %15
  %17 = load i32, ptr %6, align 4
  %18 = load i32, ptr %5, align 4
  %19 = icmp ne i32 %17, %18
  br i1 %19, label %20, label %23

20:                                               ; preds = %16
  %21 = load i32, ptr %6, align 4
  %22 = icmp ne i32 %21, 0
  br label %23

23:                                               ; preds = %20, %16
  %24 = phi i1 [ false, %16 ], [ %22, %20 ]
  br i1 %24, label %25, label %33

25:                                               ; preds = %23
  %26 = load i32, ptr %6, align 4
  %27 = zext i32 %26 to i64
  %28 = getelementptr inbounds [1018 x %"struct.clang::ASTNodeKind::KindInfo"], ptr @_ZN5clang11ASTNodeKind11AllKindInfoE, i64 0, i64 %27
  %29 = getelementptr inbounds nuw %"struct.clang::ASTNodeKind::KindInfo", ptr %28, i32 0, i32 0
  %30 = load i32, ptr %29, align 16
  store i32 %30, ptr %6, align 4
  %31 = load i32, ptr %8, align 4
  %32 = add i32 %31, 1
  store i32 %32, ptr %8, align 4
  br label %16, !llvm.loop !6

33:                                               ; preds = %23
  %34 = load ptr, ptr %7, align 8
  %35 = icmp ne ptr %34, null
  br i1 %35, label %36, label %39

36:                                               ; preds = %33
  %37 = load i32, ptr %8, align 4
  %38 = load ptr, ptr %7, align 8
  store i32 %37, ptr %38, align 4
  br label %39

39:                                               ; preds = %36, %33
  %40 = load i32, ptr %6, align 4
  %41 = load i32, ptr %5, align 4
  %42 = icmp eq i32 %40, %41
  store i1 %42, ptr %4, align 1
  br label %43

43:                                               ; preds = %39, %14
  %44 = load i1, ptr %4, align 1
  ret i1 %44
}

; Function Attrs: mustprogress nounwind uwtable
define dso_local noundef zeroext i1 @_ZNK5clang11ASTNodeKind8isBaseOfES0_Pj(ptr noundef nonnull align 4 dereferenceable(4) %0, i32 %1, ptr noundef %2) #0 align 2 {
  %4 = alloca %"class.clang::ASTNodeKind", align 4
  %5 = alloca ptr, align 8
  %6 = alloca ptr, align 8
  %7 = getelementptr inbounds nuw %"class.clang::ASTNodeKind", ptr %4, i32 0, i32 0
  store i32 %1, ptr %7, align 4
  store ptr %0, ptr %5, align 8
  store ptr %2, ptr %6, align 8
  %8 = load ptr, ptr %5, align 8
  %9 = getelementptr inbounds nuw %"class.clang::ASTNodeKind", ptr %8, i32 0, i32 0
  %10 = load i32, ptr %9, align 4
  %11 = getelementptr inbounds nuw %"class.clang::ASTNodeKind", ptr %4, i32 0, i32 0
  %12 = load i32, ptr %11, align 4
  %13 = load ptr, ptr %6, align 8
  %14 = call noundef zeroext i1 @_ZN5clang11ASTNodeKind8isBaseOfENS0_10NodeKindIdES1_Pj(i32 noundef %10, i32 noundef %12, ptr noundef %13)
  ret i1 %14
}