; Function Attrs: mustprogress nofree norecurse nosync nounwind memory(argmem: readwrite) uwtable
define dso_local noundef zeroext i1 @_ZNK5clang11ASTNodeKind8isBaseOfES0_Pj(ptr nocapture noundef nonnull readonly align 4 dereferenceable(4) %0, i32 %1, ptr noundef writeonly %2) local_unnamed_addr #2 align 2 {
  %4 = load i32, ptr %0, align 4
  %5 = icmp eq i32 %4, 0
  %6 = icmp eq i32 %1, 0
  %or.cond.i = or i1 %6, %5
  br i1 %or.cond.i, label %_ZN5clang11ASTNodeKind8isBaseOfENS0_10NodeKindIdES1_Pj.exit, label %.preheader.i

.preheader.i:                                     ; preds = %3
  %.not21.i = icmp eq i32 %1, %4
  br i1 %.not21.i, label %._crit_edge.i, label %.lr.ph.i

.lr.ph.i:                                         ; preds = %.preheader.i, %.lr.ph.i
  %.019.i = phi i32 [ %10, %.lr.ph.i ], [ 0, %.preheader.i ]
  %.01418.i = phi i32 [ %9, %.lr.ph.i ], [ %1, %.preheader.i ]
  %7 = zext i32 %.01418.i to i64
  %8 = getelementptr inbounds [1018 x %"struct.clang::ASTNodeKind::KindInfo"], ptr @_ZN5clang11ASTNodeKind11AllKindInfoE, i64 0, i64 %7
  %9 = load i32, ptr %8, align 16
  %10 = add i32 %.019.i, 1
  %11 = icmp ne i32 %9, %4
  %12 = icmp ne i32 %9, 0
  %13 = and i1 %11, %12
  br i1 %13, label %.lr.ph.i, label %._crit_edge.i, !llvm.loop !6

._crit_edge.i:                                    ; preds = %.lr.ph.i, %.preheader.i
  %.014.lcssa.i = phi i32 [ %1, %.preheader.i ], [ %9, %.lr.ph.i ]
  %.0.lcssa.i = phi i32 [ 0, %.preheader.i ], [ %10, %.lr.ph.i ]
  %.not.i = icmp eq ptr %2, null
  br i1 %.not.i, label %15, label %14

14:                                               ; preds = %._crit_edge.i
  store i32 %.0.lcssa.i, ptr %2, align 4
  br label %15

15:                                               ; preds = %14, %._crit_edge.i
  %16 = icmp eq i32 %.014.lcssa.i, %4
  br label %_ZN5clang11ASTNodeKind8isBaseOfENS0_10NodeKindIdES1_Pj.exit

_ZN5clang11ASTNodeKind8isBaseOfENS0_10NodeKindIdES1_Pj.exit: ; preds = %3, %15
  %.013.i = phi i1 [ %16, %15 ], [ false, %3 ]
  ret i1 %.013.i
}